target datalayout = "e-m:e-p270:32:32-p271:32:32-p272:64:64-i64:64-i128:128-f80:128-n8:16:32:64-S128"
target triple = "x86_64-unknown-linux-gnu"

%"struct.OpenImageIO_v2_6_0::TypeDesc" = type { i8, i8, i8, i8, i32 }
%"class.OpenImageIO_v2_6_0::basic_string_view" = type { ptr, i64 }
%"class.OpenImageIO_v2_6_0::ParamValue" = type <{ %"class.OpenImageIO_v2_6_0::ustring", %"struct.OpenImageIO_v2_6_0::TypeDesc", %union.anon.17, i32, i8, i8, i8, i8 }>
%"class.OpenImageIO_v2_6_0::ustring" = type { ptr }
%union.anon.17 = type { ptr, [8 x i8] }

; Function Attrs: mustprogress nounwind uwtable
define linkonce_odr void @_ZN18OpenImageIO_v2_6_07ustringD2Ev(ptr noundef nonnull align 8 dereferenceable(8) %this) unnamed_addr #4 comdat align 2 {
entry:
  %this.addr = alloca ptr, align 8
  store ptr %this, ptr %this.addr, align 8
  ret void
}

; Function Attrs: mustprogress nounwind uwtable
define linkonce_odr hidden noundef i64 @_ZNK18OpenImageIO_v2_6_017basic_string_viewIcSt11char_traitsIcEE4sizeEv(ptr noundef nonnull align 8 dereferenceable(16) %this) #4 comdat align 2 {
entry:
  %this.addr = alloca ptr, align 8
  store ptr %this, ptr %this.addr, align 8
  %this1 = load ptr, ptr %this.addr, align 8
  %m_len = getelementptr inbounds %"class.OpenImageIO_v2_6_0::basic_string_view", ptr %this1, i32 0, i32 1
  %0 = load i64, ptr %m_len, align 8
  ret i64 %0
}

; Function Attrs: mustprogress nounwind uwtable
define linkonce_odr hidden noundef ptr @_ZNK18OpenImageIO_v2_6_017basic_string_viewIcSt11char_traitsIcEE4dataEv(ptr noundef nonnull align 8 dereferenceable(16) %this) #4 comdat align 2 {
entry:
  %this.addr = alloca ptr, align 8
  store ptr %this, ptr %this.addr, align 8
  %this1 = load ptr, ptr %this.addr, align 8
  %m_chars = getelementptr inbounds %"class.OpenImageIO_v2_6_0::basic_string_view", ptr %this1, i32 0, i32 0
  %0 = load ptr, ptr %m_chars, align 8
  ret ptr %0
}

; Function Attrs: mustprogress nounwind uwtable
define linkonce_odr void @_ZN18OpenImageIO_v2_6_07ustringC2Ev(ptr noundef nonnull align 8 dereferenceable(8) %this) unnamed_addr #4 comdat align 2 {
entry:
  %this.addr = alloca ptr, align 8
  store ptr %this, ptr %this.addr, align 8
  %this1 = load ptr, ptr %this.addr, align 8
  %m_chars = getelementptr inbounds %"class.OpenImageIO_v2_6_0::ustring", ptr %this1, i32 0, i32 0
  store ptr null, ptr %m_chars, align 8
  ret void
}

; Function Attrs: mustprogress nounwind uwtable
define linkonce_odr void @_ZN18OpenImageIO_v2_6_010ParamValueD2Ev(ptr noundef nonnull align 8 dereferenceable(39) %this) unnamed_addr #4 comdat align 2 {
entry:
  %this.addr = alloca ptr, align 8
  store ptr %this, ptr %this.addr, align 8
  %this1 = load ptr, ptr %this.addr, align 8
  call void @_ZN18OpenImageIO_v2_6_010ParamValue11clear_valueEv(ptr noundef nonnull align 8 dereferenceable(39) %this1) #3
  %m_name = getelementptr inbounds %"class.OpenImageIO_v2_6_0::ParamValue", ptr %this1, i32 0, i32 0
  call void @_ZN18OpenImageIO_v2_6_07ustringD2Ev(ptr noundef nonnull align 8 dereferenceable(8) %m_name) #3
  ret void
}

; Function Attrs: mustprogress nounwind uwtable
define linkonce_odr void @_ZN18OpenImageIO_v2_6_08TypeDescC2ENS0_8BASETYPEENS0_9AGGREGATEENS0_12VECSEMANTICSEi(ptr noundef nonnull align 4 dereferenceable(8) %this, i32 noundef %btype, i32 noundef %agg, i32 noundef %semantics, i32 noundef %arraylen) unnamed_addr #4 comdat align 2 {
entry:
  %this.addr = alloca ptr, align 8
  %btype.addr = alloca i32, align 4
  %agg.addr = alloca i32, align 4
  %semantics.addr = alloca i32, align 4
  %arraylen.addr = alloca i32, align 4
  store ptr %this, ptr %this.addr, align 8
  store i32 %btype, ptr %btype.addr, align 4
  store i32 %agg, ptr %agg.addr, align 4
  store i32 %semantics, ptr %semantics.addr, align 4
  store i32 %arraylen, ptr %arraylen.addr, align 4
  %this1 = load ptr, ptr %this.addr, align 8
  %basetype = getelementptr inbounds %"struct.OpenImageIO_v2_6_0::TypeDesc", ptr %this1, i32 0, i32 0
  %0 = load i32, ptr %btype.addr, align 4
  %conv = trunc i32 %0 to i8
  store i8 %conv, ptr %basetype, align 4
  %aggregate = getelementptr inbounds %"struct.OpenImageIO_v2_6_0::TypeDesc", ptr %this1, i32 0, i32 1
  %1 = load i32, ptr %agg.addr, align 4
  %conv2 = trunc i32 %1 to i8
  store i8 %conv2, ptr %aggregate, align 1
  %vecsemantics = getelementptr inbounds %"struct.OpenImageIO_v2_6_0::TypeDesc", ptr %this1, i32 0, i32 2
  %2 = load i32, ptr %semantics.addr, align 4
  %conv3 = trunc i32 %2 to i8
  store i8 %conv3, ptr %vecsemantics, align 2
  %reserved = getelementptr inbounds %"struct.OpenImageIO_v2_6_0::TypeDesc", ptr %this1, i32 0, i32 3
  store i8 0, ptr %reserved, align 1
  %arraylen4 = getelementptr inbounds %"struct.OpenImageIO_v2_6_0::TypeDesc", ptr %this1, i32 0, i32 4
  %3 = load i32, ptr %arraylen.addr, align 4
  store i32 %3, ptr %arraylen4, align 4
  ret void
}

; Function Attrs: mustprogress nounwind uwtable
define linkonce_odr hidden void @_ZN18OpenImageIO_v2_6_017basic_string_viewIcSt11char_traitsIcEEC2ERKS3_(ptr noundef nonnull align 8 dereferenceable(16) %this, ptr noundef nonnull align 8 dereferenceable(16) %copy) unnamed_addr #4 comdat align 2 {
entry:
  %this.addr = alloca ptr, align 8
  %copy.addr = alloca ptr, align 8
  store ptr %this, ptr %this.addr, align 8
  store ptr %copy, ptr %copy.addr, align 8
  %this1 = load ptr, ptr %this.addr, align 8
  %m_chars = getelementptr inbounds %"class.OpenImageIO_v2_6_0::basic_string_view", ptr %this1, i32 0, i32 0
  %0 = load ptr, ptr %copy.addr, align 8
  %call = call noundef ptr @_ZNK18OpenImageIO_v2_6_017basic_string_viewIcSt11char_traitsIcEE4dataEv(ptr noundef nonnull align 8 dereferenceable(16) %0) #3
  store ptr %call, ptr %m_chars, align 8
  %m_len = getelementptr inbounds %"class.OpenImageIO_v2_6_0::basic_string_view", ptr %this1, i32 0, i32 1
  %1 = load ptr, ptr %copy.addr, align 8
  %call2 = call noundef i64 @_ZNK18OpenImageIO_v2_6_017basic_string_viewIcSt11char_traitsIcEE4sizeEv(ptr noundef nonnull align 8 dereferenceable(16) %1) #3
  store i64 %call2, ptr %m_len, align 8
  ret void
}

; Function Attrs: mustprogress nounwind uwtable
define linkonce_odr void @_ZN18OpenImageIO_v2_6_010ParamValueC2Ev(ptr noundef nonnull align 8 dereferenceable(39) %this) unnamed_addr #4 comdat align 2 {
entry:
  %this.addr = alloca ptr, align 8
  store ptr %this, ptr %this.addr, align 8
  %this1 = load ptr, ptr %this.addr, align 8
  %m_name = getelementptr inbounds %"class.OpenImageIO_v2_6_0::ParamValue", ptr %this1, i32 0, i32 0
  call void @_ZN18OpenImageIO_v2_6_07ustringC2Ev(ptr noundef nonnull align 8 dereferenceable(8) %m_name) #3
  %m_type = getelementptr inbounds %"class.OpenImageIO_v2_6_0::ParamValue", ptr %this1, i32 0, i32 1
  call void @_ZN18OpenImageIO_v2_6_08TypeDescC2ENS0_8BASETYPEENS0_9AGGREGATEENS0_12VECSEMANTICSEi(ptr noundef nonnull align 4 dereferenceable(8) %m_type, i32 noundef 0, i32 noundef 1, i32 noundef 0, i32 noundef 0) #3
  %m_nvalues = getelementptr inbounds %"class.OpenImageIO_v2_6_0::ParamValue", ptr %this1, i32 0, i32 3
  store i32 0, ptr %m_nvalues, align 8
  %m_interp = getelementptr inbounds %"class.OpenImageIO_v2_6_0::ParamValue", ptr %this1, i32 0, i32 4
  store i8 0, ptr %m_interp, align 4
  %m_copy = getelementptr inbounds %"class.OpenImageIO_v2_6_0::ParamValue", ptr %this1, i32 0, i32 5
  store i8 0, ptr %m_copy, align 1
  %m_nonlocal = getelementptr inbounds %"class.OpenImageIO_v2_6_0::ParamValue", ptr %this1, i32 0, i32 6
  store i8 0, ptr %m_nonlocal, align 2
  %m_data2 = getelementptr inbounds %"class.OpenImageIO_v2_6_0::ParamValue", ptr %this1, i32 0, i32 2
  store ptr null, ptr %m_data2, align 8
  ret void
}

; Function Attrs: mustprogress uwtable
define noundef i32 @_ZNK18OpenImageIO_v2_6_09ImageSpec17get_int_attributeENS_17basic_string_viewIcSt11char_traitsIcEEEi(ptr noundef nonnull align 8 dereferenceable(160) %this, ptr noundef %name, i32 noundef %defaultval) #6 align 2 personality ptr @__gxx_personality_v0 {
entry:
  %this.addr = alloca ptr, align 8
  %name.indirect_addr = alloca ptr, align 8
  %defaultval.addr = alloca i32, align 4
  %tmpparam = alloca %"class.OpenImageIO_v2_6_0::ParamValue", align 8
  %p = alloca ptr, align 8
  %agg.tmp = alloca %"class.OpenImageIO_v2_6_0::basic_string_view", align 8
  %exn.slot = alloca ptr, align 8
  %ehselector.slot = alloca i32, align 4
  %agg.tmp2 = alloca %"struct.OpenImageIO_v2_6_0::TypeDesc", align 4
  store ptr %this, ptr %this.addr, align 8
  store ptr %name, ptr %name.indirect_addr, align 8
  store i32 %defaultval, ptr %defaultval.addr, align 4
  %this1 = load ptr, ptr %this.addr, align 8
  call void @_ZN18OpenImageIO_v2_6_010ParamValueC2Ev(ptr noundef nonnull align 8 dereferenceable(39) %tmpparam) #3
  invoke void @_ZN18OpenImageIO_v2_6_017basic_string_viewIcSt11char_traitsIcEEC2ERKS3_(ptr noundef nonnull align 8 dereferenceable(16) %agg.tmp, ptr noundef nonnull align 8 dereferenceable(16) %name)
          to label %invoke.cont unwind label %lpad

invoke.cont:                                      ; preds = %entry
  call void @_ZN18OpenImageIO_v2_6_08TypeDescC2ENS0_8BASETYPEENS0_9AGGREGATEENS0_12VECSEMANTICSEi(ptr noundef nonnull align 4 dereferenceable(8) %agg.tmp2, i32 noundef 0, i32 noundef 1, i32 noundef 0, i32 noundef 0) #3
  %call = invoke noundef ptr @_ZNK18OpenImageIO_v2_6_09ImageSpec14find_attributeENS_17basic_string_viewIcSt11char_traitsIcEEERNS_10ParamValueENS_8TypeDescEb(ptr noundef nonnull align 8 dereferenceable(160) %this1, ptr noundef %agg.tmp, ptr noundef nonnull align 8 dereferenceable(39) %tmpparam, ptr noundef %agg.tmp2, i1 noundef zeroext false)
          to label %invoke.cont3 unwind label %lpad

invoke.cont3:                                     ; preds = %invoke.cont
  store ptr %call, ptr %p, align 8
  %0 = load ptr, ptr %p, align 8
  %tobool = icmp ne ptr %0, null
  br i1 %tobool, label %cond.true, label %cond.false

cond.true:                                        ; preds = %invoke.cont3
  %1 = load ptr, ptr %p, align 8
  %2 = load i32, ptr %defaultval.addr, align 4
  %call5 = invoke noundef i32 @_ZNK18OpenImageIO_v2_6_010ParamValue7get_intEi(ptr noundef nonnull align 8 dereferenceable(39) %1, i32 noundef %2)
          to label %invoke.cont4 unwind label %lpad

invoke.cont4:                                     ; preds = %cond.true
  br label %cond.end

cond.false:                                       ; preds = %invoke.cont3
  %3 = load i32, ptr %defaultval.addr, align 4
  br label %cond.end

cond.end:                                         ; preds = %cond.false, %invoke.cont4
  %cond = phi i32 [ %call5, %invoke.cont4 ], [ %3, %cond.false ]
  call void @_ZN18OpenImageIO_v2_6_010ParamValueD2Ev(ptr noundef nonnull align 8 dereferenceable(39) %tmpparam) #3
  ret i32 %cond

lpad:                                             ; preds = %cond.true, %invoke.cont, %entry
  %4 = landingpad { ptr, i32 }
          cleanup
  %5 = extractvalue { ptr, i32 } %4, 0
  store ptr %5, ptr %exn.slot, align 8
  %6 = extractvalue { ptr, i32 } %4, 1
  store i32 %6, ptr %ehselector.slot, align 4
  call void @_ZN18OpenImageIO_v2_6_010ParamValueD2Ev(ptr noundef nonnull align 8 dereferenceable(39) %tmpparam) #3
  br label %eh.resume

eh.resume:                                        ; preds = %lpad
  %exn = load ptr, ptr %exn.slot, align 8
  %sel = load i32, ptr %ehselector.slot, align 4
  %lpad.val = insertvalue { ptr, i32 } poison, ptr %exn, 0
  %lpad.val6 = insertvalue { ptr, i32 } %lpad.val, i32 %sel, 1
  resume { ptr, i32 } %lpad.val6
}