; Function Attrs: mustprogress uwtable
define noundef i32 @_ZNK18OpenImageIO_v2_6_09ImageSpec17get_int_attributeENS_17basic_string_viewIcSt11char_traitsIcEEEi(ptr noundef nonnull align 8 dereferenceable(160) %this, ptr nocapture noundef readonly %name, i32 noundef %defaultval) local_unnamed_addr #5 align 2 personality ptr @__gxx_personality_v0 {
entry:
  %tmpparam = alloca %"class.OpenImageIO_v2_6_0::ParamValue", align 8
  %agg.tmp = alloca %"class.OpenImageIO_v2_6_0::basic_string_view", align 8
  %agg.tmp2 = alloca %"struct.OpenImageIO_v2_6_0::TypeDesc", align 4
  store ptr null, ptr %tmpparam, align 8
  %m_type.i = getelementptr inbounds i8, ptr %tmpparam, i64 8
  store i8 0, ptr %m_type.i, align 8
  %aggregate.i.i = getelementptr inbounds i8, ptr %tmpparam, i64 9
  store i8 1, ptr %aggregate.i.i, align 1
  %vecsemantics.i.i = getelementptr inbounds i8, ptr %tmpparam, i64 10
  %m_nvalues.i = getelementptr inbounds i8, ptr %tmpparam, i64 32
  call void @llvm.memset.p0.i64(ptr noundef nonnull align 2 dereferenceable(14) %vecsemantics.i.i, i8 0, i64 14, i1 false)
  call void @llvm.memset.p0.i64(ptr noundef nonnull align 8 dereferenceable(7) %m_nvalues.i, i8 0, i64 7, i1 false)
  %0 = load ptr, ptr %name, align 8
  store ptr %0, ptr %agg.tmp, align 8
  %m_len.i = getelementptr inbounds i8, ptr %agg.tmp, i64 8
  %m_len.i.i = getelementptr inbounds i8, ptr %name, i64 8
  %1 = load i64, ptr %m_len.i.i, align 8
  store i64 %1, ptr %m_len.i, align 8
  store <4 x i8> <i8 0, i8 1, i8 0, i8 0>, ptr %agg.tmp2, align 4
  %arraylen4.i = getelementptr inbounds i8, ptr %agg.tmp2, i64 4
  store i32 0, ptr %arraylen4.i, align 4
  %call = invoke noundef ptr @_ZNK18OpenImageIO_v2_6_09ImageSpec14find_attributeENS_17basic_string_viewIcSt11char_traitsIcEEERNS_10ParamValueENS_8TypeDescEb(ptr noundef nonnull align 8 dereferenceable(160) %this, ptr noundef nonnull %agg.tmp, ptr noundef nonnull align 8 dereferenceable(39) %tmpparam, ptr noundef nonnull %agg.tmp2, i1 noundef zeroext false)
          to label %invoke.cont3 unwind label %lpad

invoke.cont3:                                     ; preds = %entry
  %tobool.not = icmp eq ptr %call, null
  br i1 %tobool.not, label %cond.end, label %cond.true

cond.true:                                        ; preds = %invoke.cont3
  %call5 = invoke noundef i32 @_ZNK18OpenImageIO_v2_6_010ParamValue7get_intEi(ptr noundef nonnull align 8 dereferenceable(39) %call, i32 noundef %defaultval)
          to label %cond.end unwind label %lpad

cond.end:                                         ; preds = %invoke.cont3, %cond.true
  %cond = phi i32 [ %call5, %cond.true ], [ %defaultval, %invoke.cont3 ]
  call void @_ZN18OpenImageIO_v2_6_010ParamValue11clear_valueEv(ptr noundef nonnull align 8 dereferenceable(39) %tmpparam) #28
  ret i32 %cond

lpad:                                             ; preds = %cond.true, %entry
  %2 = landingpad { ptr, i32 }
          cleanup
  call void @_ZN18OpenImageIO_v2_6_010ParamValue11clear_valueEv(ptr noundef nonnull align 8 dereferenceable(39) %tmpparam) #28
  resume { ptr, i32 } %2
}